target datalayout = "e-m:e-p270:32:32-p271:32:32-p272:64:64-i64:64-i128:128-f80:128-n8:16:32:64-S128"
target triple = "x86_64-pc-linux-gnu"

; Function Attrs: mustprogress uwtable
define noundef i32 @_Z7MakeDirPKwbj(ptr noundef %0, i1 noundef zeroext %1, i32 noundef %2) #0 {
  %4 = alloca i32, align 4
  %5 = alloca ptr, align 8
  %6 = alloca i8, align 1
  %7 = alloca i32, align 4
  %8 = alloca [2048 x i8], align 16
  %9 = alloca i32, align 4
  %10 = alloca i32, align 4
  store ptr %0, ptr %5, align 8
  %11 = zext i1 %1 to i8
  store i8 %11, ptr %6, align 1
  store i32 %2, ptr %7, align 4
  %12 = load ptr, ptr %5, align 8
  %13 = getelementptr inbounds [2048 x i8], ptr %8, i64 0, i64 0
  %14 = call noundef zeroext i1 @_Z10WideToCharPKwPcm(ptr noundef %12, ptr noundef %13, i64 noundef 2048)
  %15 = load i8, ptr %6, align 1
  %16 = trunc i8 %15 to i1
  br i1 %16, label %17, label %19

17:                                               ; preds = %3
  %18 = load i32, ptr %7, align 4
  br label %20

19:                                               ; preds = %3
  br label %20

20:                                               ; preds = %19, %17
  %21 = phi i32 [ %18, %17 ], [ 511, %19 ]
  store i32 %21, ptr %9, align 4
  %22 = getelementptr inbounds [2048 x i8], ptr %8, i64 0, i64 0
  %23 = load i32, ptr %9, align 4
  %24 = call i32 @mkdir(ptr noundef %22, i32 noundef %23) #9
  store i32 %24, ptr %10, align 4
  %25 = load i32, ptr %10, align 4
  %26 = icmp eq i32 %25, -1
  br i1 %26, label %27, label %32

27:                                               ; preds = %20
  %28 = call ptr @__errno_location() #10
  %29 = load i32, ptr %28, align 4
  %30 = icmp eq i32 %29, 2
  %31 = select i1 %30, i32 2, i32 1
  store i32 %31, ptr %4, align 4
  br label %33

32:                                               ; preds = %20
  store i32 0, ptr %4, align 4
  br label %33

33:                                               ; preds = %32, %27
  %34 = load i32, ptr %4, align 4
  ret i32 %34
}