; Function Attrs: mustprogress uwtable
define noundef range(i32 0, 3) i32 @_Z7MakeDirPKwbj(ptr noundef %0, i1 noundef zeroext %1, i32 noundef %2) local_unnamed_addr #0 {
  %4 = alloca [2048 x i8], align 16
  %5 = call noundef zeroext i1 @_Z10WideToCharPKwPcm(ptr noundef %0, ptr noundef nonnull %4, i64 noundef 2048)
  %6 = select i1 %1, i32 %2, i32 511
  %7 = call i32 @mkdir(ptr noundef nonnull %4, i32 noundef %6) #14
  %8 = icmp eq i32 %7, -1
  br i1 %8, label %9, label %14

9:                                                ; preds = %3
  %10 = tail call ptr @__errno_location() #15
  %11 = load i32, ptr %10, align 4
  %12 = icmp eq i32 %11, 2
  %13 = select i1 %12, i32 2, i32 1
  br label %14

14:                                               ; preds = %3, %9
  %.0 = phi i32 [ %13, %9 ], [ 0, %3 ]
  ret i32 %.0
}